; Function Attrs: nounwind uwtable
define ptr @l_Lean_Elab_FixedParamPerm_pickVarying___rarg(ptr noundef readonly captures(none) %0, ptr noundef readonly captures(none) %1) local_unnamed_addr #1 {
  %3 = getelementptr i8, ptr %1, i64 8
  %.val = load i64, ptr %3, align 8, !tbaa !12
  tail call void @lean_inc_heartbeat() #5
  %4 = tail call noalias ptr @mi_malloc_small(i64 noundef 32) #5
  %5 = icmp eq ptr %4, null
  br i1 %5, label %6, label %lean_alloc_ctor.exit

6:                                                ; preds = %2
  tail call void @lean_internal_panic_out_of_memory() #6
  unreachable

lean_alloc_ctor.exit:                             ; preds = %2
  %7 = shl i64 %.val, 1
  %8 = or disjoint i64 %7, 1
  %9 = inttoptr i64 %8 to ptr
  %10 = getelementptr inbounds nuw i8, ptr %4, i64 4
  store i32 1, ptr %4, align 4, !tbaa !4
  store i32 196640, ptr %10, align 4
  %11 = getelementptr inbounds nuw i8, ptr %4, i64 8
  store ptr inttoptr (i64 1 to ptr), ptr %11, align 8, !tbaa !9
  %12 = getelementptr inbounds nuw i8, ptr %4, i64 16
  store ptr %9, ptr %12, align 8, !tbaa !9
  %13 = getelementptr inbounds nuw i8, ptr %4, i64 24
  store ptr inttoptr (i64 3 to ptr), ptr %13, align 8, !tbaa !9
  %14 = load ptr, ptr @l_Std_Range_forIn_x27_loop___at_Lean_Elab_getParamRevDeps___spec__2___closed__1, align 8, !tbaa !9
  %15 = tail call ptr @l_Std_Range_forIn_x27_loop___at_Lean_Elab_FixedParamPerm_pickVarying___spec__1___rarg(ptr noundef %0, ptr noundef nonnull %1, ptr noundef nonnull %4, ptr noundef %14, ptr noundef nonnull inttoptr (i64 1 to ptr), ptr nonnull poison, ptr nonnull poison)
  %16 = ptrtoint ptr %4 to i64
  %17 = and i64 %16, 1
  %.not = icmp eq i64 %17, 0
  br i1 %.not, label %18, label %lean_dec.exit

18:                                               ; preds = %lean_alloc_ctor.exit
  %19 = load i32, ptr %4, align 4, !tbaa !4
  %20 = icmp sgt i32 %19, 1
  br i1 %20, label %21, label %23, !prof !11

21:                                               ; preds = %18
  %22 = add nsw i32 %19, -1
  store i32 %22, ptr %4, align 4, !tbaa !4
  br label %lean_dec.exit

23:                                               ; preds = %18
  %.not.i = icmp eq i32 %19, 0
  br i1 %.not.i, label %lean_dec.exit, label %24

24:                                               ; preds = %23
  tail call void @lean_dec_ref_cold(ptr noundef nonnull %4) #5
  br label %lean_dec.exit

lean_dec.exit:                                    ; preds = %24, %23, %21, %lean_alloc_ctor.exit
  ret ptr %15
}